TN:
SF:/home/antonov/photon_counting/csrc/include/utils.hpp
FN:24,_Z11cast_arraysIsdEvPPT_PPT0_ii
FN:43,_Z19dump_arrays_to_fileIsEvPPT_iiSsSs
FN:43,_Z19dump_arrays_to_fileIdEvPPT_iiSsSs
FN:76,_Z21load_arrays_from_fileIdEvPPT_Ssii
FN:76,_Z21load_arrays_from_fileIsEvPPT_Ssii
FNDA:3,_Z19dump_arrays_to_fileIsEvPPT_iiSsSs
FNDA:3,_Z19dump_arrays_to_fileIdEvPPT_iiSsSs
FNDA:3,_Z11cast_arraysIsdEvPPT_PPT0_ii
FNDA:3,_Z21load_arrays_from_fileIdEvPPT_Ssii
FNDA:12,_Z21load_arrays_from_fileIsEvPPT_Ssii
FNF:5
FNH:5
DA:24,3
DA:34,3
DA:36,6
DA:37,12
DA:38,9
DA:40,3
DA:43,6
DA:63,6
DA:64,6
DA:66,6
DA:67,30
DA:68,24
DA:69,84
DA:70,60
DA:72,6
DA:73,6
DA:76,15
DA:92,15
DA:93,30
DA:94,15
DA:97,30
DA:98,15
DA:99,93
DA:102,69
DA:103,69
DA:104,48
DA:106,156
DA:107,108
DA:108,108
DA:111,48
DA:114,69
DA:115,69
DA:117,12
DA:118,3
DA:120,9
DA:121,3
DA:125,3
DA:126,15
DA:127,6
LF:39
LH:39
end_of_record
TN:
SF:/home/antonov/photon_counting/csrc/src/ia_ADQAPI.cpp
FN:10,GetMaxNofSamplesFromNofRecords
FN:16,GetMaxNofRecordsFromNofSamples
FN:23,master_setup
FN:74,fetch_channel_data
FNDA:3,fetch_channel_data
FNDA:6,GetMaxNofRecordsFromNofSamples
FNDA:3,GetMaxNofSamplesFromNofRecords
FNDA:9,master_setup
FNF:4
FNH:4
DA:10,3
DA:11,3
DA:12,3
DA:13,3
DA:16,6
DA:17,6
DA:18,6
DA:19,6
DA:23,9
DA:26,9
DA:27,9
DA:30,9
DA:31,9
DA:32,0
DA:37,9
DA:41,9
DA:44,9
DA:45,0
DA:46,0
DA:47,0
DA:50,9
DA:52,9
DA:53,9
DA:54,9
DA:56,0
DA:57,0
DA:59,0
DA:61,0
DA:63,9
DA:65,9
DA:66,9
DA:68,9
DA:74,3
DA:81,3
DA:82,3
DA:84,3
DA:85,18
DA:87,12
DA:88,12
DA:92,3
DA:93,3
DA:105,3
DA:106,3
DA:108,3
DA:109,3
LF:45
LH:37
end_of_record
TN:
SF:/home/antonov/photon_counting/csrc/src/power_kernel_cpu.cpp
FN:13,_Z17reduction_averagePPjPPdjii
FN:55,_Z36power_kernel_v1_no_background_runnerPsS_PPjii
FN:69,_ZN3CPU29power_kernel_v1_no_backgroundEPsS0_PPdjiii
FN:120,_Z39power_kernel_v2_const_background_runnerPsS_PPjssii
FN:134,_ZN3CPU32power_kernel_v2_const_backgroundEPsS0_PPdjssiii
FN:189,_Z33power_kernel_v3_background_runnerPsS_PPjS_S_iiPi
FN:204,_ZN3CPU26power_kernel_v3_backgroundEPsS0_PPdjS0_S0_iii
FN:261,_Z41__static_initialization_and_destruction_0ii
FN:261,_GLOBAL__sub_I__Z17reduction_averagePPjPPdjii
FNDA:6,_Z41__static_initialization_and_destruction_0ii
FNDA:6,_ZN3CPU32power_kernel_v2_const_backgroundEPsS0_PPdjssiii
FNDA:6,_ZN3CPU29power_kernel_v1_no_backgroundEPsS0_PPdjiii
FNDA:60,_Z39power_kernel_v2_const_background_runnerPsS_PPjssii
FNDA:24,_Z36power_kernel_v1_no_background_runnerPsS_PPjii
FNDA:6,_GLOBAL__sub_I__Z17reduction_averagePPjPPdjii
FNDA:18,_Z17reduction_averagePPjPPdjii
FNDA:6,_Z33power_kernel_v3_background_runnerPsS_PPjS_S_iiPi
FNDA:6,_ZN3CPU26power_kernel_v3_backgroundEPsS0_PPdjS0_S0_iii
FNF:9
FNH:9
DA:13,18
DA:39,72
DA:40,216
DA:41,162
DA:42,162
DA:43,162
DA:44,162
DA:45,162
DA:47,54
DA:48,54
DA:49,54
DA:50,54
DA:51,54
DA:53,18
DA:55,24
DA:59,96
DA:60,72
DA:61,72
DA:62,72
DA:63,72
DA:64,72
DA:67,24
DA:69,6
DA:79,6
DA:82,6
DA:83,36
DA:84,30
DA:87,6
DA:88,6
DA:89,6
DA:92,24
DA:93,36
DA:96,36
DA:97,18
DA:99,12
DA:102,6
DA:105,30
DA:106,24
DA:111,6
DA:114,36
DA:115,30
DA:116,6
DA:117,6
DA:118,6
DA:120,60
DA:125,132
DA:126,72
DA:127,72
DA:128,72
DA:129,72
DA:130,72
DA:132,60
DA:134,6
DA:145,6
DA:148,6
DA:149,36
DA:150,30
DA:153,6
DA:154,6
DA:155,6
DA:158,60
DA:159,108
DA:163,108
DA:164,54
DA:166,12
DA:170,6
DA:173,66
DA:174,60
DA:179,6
DA:182,36
DA:183,30
DA:184,6
DA:185,6
DA:187,6
DA:189,6
DA:194,78
DA:196,72
DA:197,72
DA:198,72
DA:199,72
DA:200,72
DA:202,6
DA:204,6
DA:212,6
DA:215,6
DA:216,36
DA:217,30
DA:220,6
DA:221,24
DA:222,90
DA:223,72
DA:228,6
DA:229,6
DA:230,6
DA:233,6
DA:234,0
DA:238,0
DA:239,0
DA:241,12
DA:245,6
DA:248,12
DA:249,6
DA:254,6
DA:257,36
DA:258,30
DA:259,6
DA:260,6
DA:261,24
LF:108
LH:105
end_of_record
TN:
SF:/home/antonov/photon_counting/csrc/src/power_kernel_gpu_utils.cpp
FN:16,_ZN3GPU21PowerKernelParametersC2Eiiii
FN:30,_ZN3GPU21PowerKernelParameters5printEv
FN:45,_ZN3GPU23fetch_kernel_parametersEv
FN:111,_ZN3GPU7STREAM215allocate_memoryEPPsS2_PS2_S3_PPPdS6_S6_
FN:158,_ZN3GPU7STREAM211free_memoryEPPsS2_PS2_S3_PPPdS6_S6_
FNDA:4,_ZN3GPU7STREAM211free_memoryEPPsS2_PS2_S3_PPPdS6_S6_
FNDA:2,_ZN3GPU21PowerKernelParametersC2Eiiii
FNDA:4,_ZN3GPU7STREAM215allocate_memoryEPPsS2_PS2_S3_PPPdS6_S6_
FNDA:2,_ZN3GPU23fetch_kernel_parametersEv
FNDA:2,_ZN3GPU21PowerKernelParameters5printEv
FNF:5
FNH:5
DA:16,2
DA:22,2
DA:23,2
DA:24,2
DA:25,2
DA:27,2
DA:28,2
DA:30,2
DA:31,2
DA:32,2
DA:34,2
DA:35,2
DA:36,2
DA:38,2
DA:39,2
DA:40,2
DA:42,2
DA:43,2
DA:45,2
DA:54,2
DA:55,2
DA:58,2
DA:59,2
DA:62,0
DA:63,0
DA:64,0
DA:65,0
DA:66,0
DA:67,0
DA:68,0
DA:95,2
DA:96,2
DA:97,2
DA:100,0
DA:108,2
DA:111,4
DA:120,4
DA:122,4
DA:127,4
DA:130,4
DA:131,4
DA:134,4
DA:135,4
DA:136,4
DA:137,4
DA:138,4
DA:142,20
DA:143,16
DA:145,16
DA:146,16
DA:147,16
DA:149,16
DA:151,32
DA:152,16
DA:155,4
DA:156,4
DA:158,4
DA:163,4
DA:165,4
DA:166,4
DA:167,4
DA:168,4
DA:170,4
DA:171,4
DA:172,4
DA:173,4
DA:174,4
DA:177,20
DA:178,16
DA:180,16
DA:181,16
DA:182,16
DA:184,16
DA:185,16
DA:188,4
DA:189,4
LF:76
LH:68
end_of_record
TN:
SF:/home/antonov/photon_counting/csrc/src/progress_bar.cpp
FN:3,_ZN11ProgressBarC2Ev
FN:5,_ZN11ProgressBarC2EmPKcRSo
FN:18,_ZN11ProgressBar18SetFrequencyUpdateEm
FN:28,_ZN11ProgressBar8SetStyleEPKcS1_
FN:34,_ZN11ProgressBar15GetConsoleWidthEv
FN:51,_ZN11ProgressBar12GetBarLengthEv
FN:60,_ZN11ProgressBar13ClearBarFieldEv
FN:68,_ZN11ProgressBar10ProgressedEm
FN:104,_Z41__static_initialization_and_destruction_0ii
FN:104,_GLOBAL__sub_I__ZN11ProgressBarC2Ev
FNDA:3,_Z41__static_initialization_and_destruction_0ii
FNDA:303,_ZN11ProgressBar10ProgressedEm
FNDA:15,_ZN11ProgressBar12GetBarLengthEv
FNDA:15,_ZN11ProgressBar15GetConsoleWidthEv
FNDA:3,_GLOBAL__sub_I__ZN11ProgressBarC2Ev
FNDA:3,_ZN11ProgressBarC2Ev
FNDA:0,_ZN11ProgressBar13ClearBarFieldEv
FNDA:6,_ZN11ProgressBar18SetFrequencyUpdateEm
FNDA:3,_ZN11ProgressBar8SetStyleEPKcS1_
FNDA:6,_ZN11ProgressBarC2EmPKcRSo
FNF:10
FNH:9
DA:3,3
DA:5,6
DA:7,6
DA:8,6
DA:9,6
DA:10,6
DA:12,6
DA:13,6
DA:14,6
DA:16,6
DA:18,6
DA:20,6
DA:21,3
DA:24,3
DA:26,6
DA:28,3
DA:30,3
DA:31,3
DA:32,3
DA:34,15
DA:44,15
DA:45,15
DA:48,15
DA:51,15
DA:55,15
DA:57,15
DA:60,0
DA:62,0
DA:63,0
DA:65,0
DA:66,0
DA:68,303
DA:71,303
DA:74,606
DA:77,15
DA:80,15
DA:83,15
DA:86,15
DA:88,1635
DA:89,1620
DA:90,969
DA:93,651
DA:97,15
DA:99,0
DA:100,0
DA:101,0
DA:104,9
LF:47
LH:39
end_of_record
TN:
SF:/home/antonov/photon_counting/csrc/src/utils.cpp
FN:6,_Z16seconds_to_hoursi
FN:17,_Z15float_to_stringfi
FNDA:3,_Z15float_to_stringfi
FNDA:3,_Z16seconds_to_hoursi
FNF:2
FNH:2
DA:6,3
DA:11,3
DA:12,3
DA:14,3
DA:17,3
DA:21,3
DA:22,3
DA:23,3
LF:8
LH:8
end_of_record
TN:
SF:/home/antonov/photon_counting/csrc/src/utils_gpu.cpp
FN:9,_Z20fetch_gpu_parametersv
FNDA:6,_Z20fetch_gpu_parametersv
FNF:1
FNH:1
DA:9,6
DA:13,6
DA:15,6
DA:16,6
DA:17,6
DA:18,6
DA:19,6
DA:20,6
DA:21,6
DA:22,6
DA:25,0
DA:27,6
DA:28,6
DA:29,0
DA:32,6
DA:35,6
DA:37,6
DA:44,6
DA:45,6
DA:46,6
DA:48,6
DA:49,6
DA:50,6
DA:53,0
DA:55,6
DA:57,6
DA:63,6
DA:64,6
DA:65,6
DA:67,6
DA:70,6
DA:73,6
DA:75,6
LF:33
LH:30
end_of_record
